target datalayout = "e-m:e-p270:32:32-p271:32:32-p272:64:64-i64:64-i128:128-f80:128-n8:16:32:64-S128"
target triple = "x86_64-pc-linux-gnu"

%struct._GtkTreeIter = type { i32, ptr, ptr, ptr }

@.str = private unnamed_addr constant [9 x i8] c"response\00", align 1

; Function Attrs: nounwind uwtable
define void @tree_on_row_activated(ptr noundef %0, ptr noundef %1, ptr noundef %2, ptr noundef %3) #0 {
  %5 = alloca ptr, align 8
  %6 = alloca ptr, align 8
  %7 = alloca ptr, align 8
  %8 = alloca ptr, align 8
  %9 = alloca ptr, align 8
  %10 = alloca ptr, align 8
  %11 = alloca %struct._GtkTreeIter, align 8
  store ptr %0, ptr %5, align 8, !tbaa !6
  store ptr %1, ptr %6, align 8, !tbaa !11
  store ptr %2, ptr %7, align 8, !tbaa !13
  store ptr %3, ptr %8, align 8, !tbaa !15
  call void @llvm.lifetime.start.p0(i64 8, ptr %9) #8
  %12 = load ptr, ptr %8, align 8, !tbaa !15
  %13 = call i64 @gtk_dialog_get_type() #9
  %14 = call ptr @g_type_check_instance_cast(ptr noundef %12, i64 noundef %13)
  store ptr %14, ptr %9, align 8, !tbaa !16
  call void @llvm.lifetime.start.p0(i64 8, ptr %10) #8
  %15 = load ptr, ptr %5, align 8, !tbaa !6
  %16 = call ptr @gtk_tree_view_get_model(ptr noundef %15)
  store ptr %16, ptr %10, align 8, !tbaa !18
  call void @llvm.lifetime.start.p0(i64 32, ptr %11) #8
  %17 = load ptr, ptr %10, align 8, !tbaa !18
  %18 = call i32 @gtk_tree_model_get_iter_first(ptr noundef %17, ptr noundef %11)
  %19 = icmp ne i32 %18, 0
  br i1 %19, label %20, label %30

20:                                               ; preds = %4
  br label %21

21:                                               ; preds = %25, %20
  %22 = load ptr, ptr %10, align 8, !tbaa !18
  %23 = call i64 @gtk_list_store_get_type() #9
  %24 = call ptr @g_type_check_instance_cast(ptr noundef %22, i64 noundef %23)
  call void (ptr, ptr, ...) @gtk_list_store_set(ptr noundef %24, ptr noundef %11, i32 noundef 0, i32 noundef 0, i32 noundef -1)
  br label %25

25:                                               ; preds = %21
  %26 = load ptr, ptr %10, align 8, !tbaa !18
  %27 = call i32 @gtk_tree_model_iter_next(ptr noundef %26, ptr noundef %11)
  %28 = icmp ne i32 %27, 0
  br i1 %28, label %21, label %29

29:                                               ; preds = %25
  br label %30

30:                                               ; preds = %29, %4
  %31 = load ptr, ptr %10, align 8, !tbaa !18
  %32 = load ptr, ptr %6, align 8, !tbaa !11
  %33 = call i32 @gtk_tree_model_get_iter(ptr noundef %31, ptr noundef %11, ptr noundef %32)
  %34 = icmp ne i32 %33, 0
  br i1 %34, label %35, label %40

35:                                               ; preds = %30
  %36 = load ptr, ptr %10, align 8, !tbaa !18
  %37 = call i64 @gtk_list_store_get_type() #9
  %38 = call ptr @g_type_check_instance_cast(ptr noundef %36, i64 noundef %37)
  call void (ptr, ptr, ...) @gtk_list_store_set(ptr noundef %38, ptr noundef %11, i32 noundef 0, i32 noundef 1, i32 noundef -1)
  %39 = load ptr, ptr %9, align 8, !tbaa !16
  call void (ptr, ptr, ...) @g_signal_emit_by_name(ptr noundef %39, ptr noundef @.str, i32 noundef -5, ptr noundef null)
  br label %40

40:                                               ; preds = %35, %30
  call void @llvm.lifetime.end.p0(i64 32, ptr %11) #8
  call void @llvm.lifetime.end.p0(i64 8, ptr %10) #8
  call void @llvm.lifetime.end.p0(i64 8, ptr %9) #8
  ret void
}