; Function Attrs: nounwind uwtable
define void @tree_on_row_activated(ptr noundef %0, ptr noundef %1, ptr readnone captures(none) %2, ptr noundef %3) #0 {
  %5 = alloca %struct._GtkTreeIter, align 8
  %6 = tail call i64 @gtk_dialog_get_type() #9
  %7 = tail call ptr @g_type_check_instance_cast(ptr noundef %3, i64 noundef %6) #10
  %8 = tail call ptr @gtk_tree_view_get_model(ptr noundef %0) #10
  call void @llvm.lifetime.start.p0(i64 32, ptr nonnull %5) #10
  %9 = call i32 @gtk_tree_model_get_iter_first(ptr noundef %8, ptr noundef nonnull %5) #10
  %.not = icmp eq i32 %9, 0
  br i1 %.not, label %.loopexit, label %.preheader

.preheader:                                       ; preds = %4
  %10 = tail call i64 @gtk_list_store_get_type() #9
  br label %11

11:                                               ; preds = %.preheader, %11
  %12 = call ptr @g_type_check_instance_cast(ptr noundef %8, i64 noundef %10) #10
  call void (ptr, ptr, ...) @gtk_list_store_set(ptr noundef %12, ptr noundef nonnull %5, i32 noundef 0, i32 noundef 0, i32 noundef -1) #10
  %13 = call i32 @gtk_tree_model_iter_next(ptr noundef %8, ptr noundef nonnull %5) #10
  %.not9 = icmp eq i32 %13, 0
  br i1 %.not9, label %.loopexit, label %11

.loopexit:                                        ; preds = %11, %4
  %14 = call i32 @gtk_tree_model_get_iter(ptr noundef %8, ptr noundef nonnull %5, ptr noundef %1) #10
  %.not10 = icmp eq i32 %14, 0
  br i1 %.not10, label %18, label %15

15:                                               ; preds = %.loopexit
  %16 = tail call i64 @gtk_list_store_get_type() #9
  %17 = call ptr @g_type_check_instance_cast(ptr noundef %8, i64 noundef %16) #10
  call void (ptr, ptr, ...) @gtk_list_store_set(ptr noundef %17, ptr noundef nonnull %5, i32 noundef 0, i32 noundef 1, i32 noundef -1) #10
  call void (ptr, ptr, ...) @g_signal_emit_by_name(ptr noundef %7, ptr noundef nonnull @.str, i32 noundef -5, ptr noundef null) #10
  br label %18

18:                                               ; preds = %15, %.loopexit
  call void @llvm.lifetime.end.p0(i64 32, ptr nonnull %5) #10
  ret void
}